; Function Attrs: mustprogress uwtable
define hidden noundef nonnull align 8 dereferenceable(16) ptr @_ZNK7datalog12dl_decl_util5arithEv(ptr noundef nonnull align 8 captures(none) dereferenceable(28) %0) local_unnamed_addr #3 align 2 {
  %2 = getelementptr inbounds nuw i8, ptr %0, i64 8
  %3 = load ptr, ptr %2, align 8, !tbaa !164
  %.not = icmp eq ptr %3, null
  br i1 %.not, label %4, label %_ZN10scoped_ptrI10arith_utilEaSEPS0_.exit

4:                                                ; preds = %1
  %5 = tail call noalias noundef ptr @_ZN6memory8allocateEm(i64 noundef 16)
  %6 = load ptr, ptr %0, align 8, !tbaa !163
  tail call void @_ZN10arith_utilC1ER11ast_manager(ptr noundef nonnull align 8 dereferenceable(16) %5, ptr noundef nonnull align 8 dereferenceable(976) %6)
  %7 = load ptr, ptr %2, align 8, !tbaa !164
  %.not.i = icmp eq ptr %7, %5
  br i1 %.not.i, label %_ZN10scoped_ptrI10arith_utilEaSEPS0_.exit, label %8

8:                                                ; preds = %4
  %9 = icmp eq ptr %7, null
  br i1 %9, label %_Z7deallocI10arith_utilEvPT_.exit.i, label %10

10:                                               ; preds = %8
  tail call void @_ZN6memory10deallocateEPv(ptr noundef nonnull %7)
  br label %_Z7deallocI10arith_utilEvPT_.exit.i

_Z7deallocI10arith_utilEvPT_.exit.i:              ; preds = %10, %8
  store ptr %5, ptr %2, align 8, !tbaa !164
  br label %_ZN10scoped_ptrI10arith_utilEaSEPS0_.exit

_ZN10scoped_ptrI10arith_utilEaSEPS0_.exit:        ; preds = %_Z7deallocI10arith_utilEvPT_.exit.i, %4, %1
  %11 = phi ptr [ %5, %_Z7deallocI10arith_utilEvPT_.exit.i ], [ %7, %4 ], [ %3, %1 ]
  ret ptr %11
}